; Function Attrs: null_pointer_is_valid sspstrong uwtable
define internal noundef zeroext i1 @vcdu_uat_data_update_cb(ptr noundef readonly captures(none) %0, ptr noundef writeonly captures(none) %1) #0 {
  %3 = load i32, ptr %0, align 4
  %4 = icmp ult i32 %3, 64
  br i1 %4, label %7, label %5

5:                                                ; preds = %2
  %6 = tail call noalias ptr @g_strdup(ptr noundef nonnull @.str.119)
  store ptr %6, ptr %1, align 8
  br label %7

7:                                                ; preds = %2, %5
  ret i1 %4
}